; ModuleID = '54/919.c'
source_filename = "54/919.c"
target datalayout = "e-m:e-p270:32:32-p271:32:32-p272:64:64-i64:64-f80:128-n8:16:32:64-S128"
target triple = "x86_64-pc-linux-gnu"

@.str = private unnamed_addr constant [5 x i8] c"%d%d\00", align 1
@.str.1 = private unnamed_addr constant [4 x i8] c"%d\0A\00", align 1

; Function Attrs: noinline nounwind uwtable
define dso_local i32 @main() #0 {
  %1 = alloca i32, align 4
  %2 = alloca i32, align 4
  %3 = alloca i32, align 4
  %4 = alloca i32, align 4
  store i32 0, i32* %1, align 4
  %5 = call i32 (i8*, ...) @__isoc99_scanf(i8* getelementptr inbounds ([5 x i8], [5 x i8]* @.str, i64 0, i64 0), i32* %3, i32* %4)
  %6 = load i32, i32* %3, align 4
  %7 = load i32, i32* %4, align 4
  %8 = call i32 @dis(i32 %6, i32 %7)
  store i32 %8, i32* %2, align 4
  %9 = load i32, i32* %2, align 4
  %10 = call i32 (i8*, ...) @printf(i8* getelementptr inbounds ([4 x i8], [4 x i8]* @.str.1, i64 0, i64 0), i32 %9)
  ret i32 0
}

declare dso_local i32 @__isoc99_scanf(i8*, ...) #1

; Function Attrs: noinline nounwind uwtable
define dso_local i32 @dis(i32 %0, i32 %1) #0 {
  %3 = alloca i32, align 4
  %4 = alloca i32, align 4
  %5 = alloca i32, align 4
  %6 = alloca i32, align 4
  %7 = alloca i32, align 4
  %8 = alloca i32, align 4
  store i32 %0, i32* %3, align 4
  store i32 %1, i32* %4, align 4
  %9 = load i32, i32* %3, align 4
  %10 = load i32, i32* %4, align 4
  %11 = add nsw i32 %9, %10
  store i32 %11, i32* %5, align 4
  br label %12

12:                                               ; preds = %44, %2
  %13 = load i32, i32* %5, align 4
  store i32 %13, i32* %6, align 4
  store i32 1, i32* %7, align 4
  br label %14

14:                                               ; preds = %33, %12
  %15 = load i32, i32* %7, align 4
  %16 = load i32, i32* %3, align 4
  %17 = icmp sle i32 %15, %16
  br i1 %17, label %18, label %36

18:                                               ; preds = %14
  %19 = load i32, i32* %6, align 4
  %20 = load i32, i32* %3, align 4
  %21 = srem i32 %19, %20
  %22 = load i32, i32* %4, align 4
  %23 = icmp ne i32 %21, %22
  br i1 %23, label %24, label %25

24:                                               ; preds = %18
  store i32 1, i32* %8, align 4
  br label %36

25:                                               ; preds = %18
  %26 = load i32, i32* %6, align 4
  %27 = load i32, i32* %4, align 4
  %28 = sub nsw i32 %26, %27
  %29 = load i32, i32* %6, align 4
  %30 = load i32, i32* %3, align 4
  %31 = sdiv i32 %29, %30
  %32 = sub nsw i32 %28, %31
  store i32 %32, i32* %6, align 4
  br label %33

33:                                               ; preds = %25
  %34 = load i32, i32* %7, align 4
  %35 = add nsw i32 %34, 1
  store i32 %35, i32* %7, align 4
  br label %14

36:                                               ; preds = %24, %14
  %37 = load i32, i32* %8, align 4
  %38 = icmp ne i32 %37, 0
  br i1 %38, label %43, label %39

39:                                               ; preds = %36
  %40 = load i32, i32* %6, align 4
  %41 = icmp sgt i32 %40, 0
  br i1 %41, label %42, label %43

42:                                               ; preds = %39
  br label %48

43:                                               ; preds = %39, %36
  store i32 0, i32* %8, align 4
  br label %44

44:                                               ; preds = %43
  %45 = load i32, i32* %3, align 4
  %46 = load i32, i32* %5, align 4
  %47 = add nsw i32 %46, %45
  store i32 %47, i32* %5, align 4
  br label %12

48:                                               ; preds = %42
  %49 = load i32, i32* %5, align 4
  ret i32 %49
}

declare dso_local i32 @printf(i8*, ...) #1


!llvm.module.flags = !{!0}
!llvm.ident = !{!1}

!0 = !{i32 1, !"wchar_size", i32 4}
!1 = !{!"clang version 10.0.0-4ubuntu1 "}
